; Function Attrs: mustprogress uwtable
define noundef i32 @_ZN15colvarbias_meta23write_state_to_replicasEv(ptr noundef nonnull align 8 dereferenceable(880) %0) unnamed_addr #4 align 2 {
  %2 = getelementptr inbounds i8, ptr %0, i64 8
  %3 = load i32, ptr %2, align 8
  %.not = icmp eq i32 %3, 0
  br i1 %.not, label %.loopexit, label %4

4:                                                ; preds = %1
  %5 = load ptr, ptr %0, align 8
  %6 = getelementptr inbounds i8, ptr %5, i64 232
  %7 = load ptr, ptr %6, align 8
  %8 = tail call noundef i32 %7(ptr noundef nonnull align 8 dereferenceable(880) %0)
  %9 = load ptr, ptr %0, align 8
  %10 = getelementptr inbounds i8, ptr %9, i64 240
  %11 = load ptr, ptr %10, align 8
  %12 = tail call noundef i32 %11(ptr noundef nonnull align 8 dereferenceable(880) %0)
  %13 = or i32 %12, %8
  %14 = getelementptr inbounds i8, ptr %0, i64 280
  %15 = getelementptr inbounds i8, ptr %0, i64 288
  %16 = load ptr, ptr %15, align 8
  %17 = load ptr, ptr %14, align 8
  %.not8 = icmp eq ptr %16, %17
  br i1 %.not8, label %.loopexit, label %.lr.ph

.lr.ph:                                           ; preds = %4, %.lr.ph
  %18 = phi ptr [ %24, %.lr.ph ], [ %17, %4 ]
  %.07 = phi i64 [ %22, %.lr.ph ], [ 0, %4 ]
  %19 = getelementptr inbounds ptr, ptr %18, i64 %.07
  %20 = load ptr, ptr %19, align 8
  %21 = getelementptr inbounds i8, ptr %20, i64 440
  store i8 0, ptr %21, align 8
  %22 = add nuw i64 %.07, 1
  %23 = load ptr, ptr %15, align 8
  %24 = load ptr, ptr %14, align 8
  %25 = ptrtoint ptr %23 to i64
  %26 = ptrtoint ptr %24 to i64
  %27 = sub i64 %25, %26
  %28 = ashr exact i64 %27, 3
  %29 = icmp ult i64 %22, %28
  br i1 %29, label %.lr.ph, label %.loopexit, !llvm.loop !115

.loopexit:                                        ; preds = %.lr.ph, %4, %1
  %.06 = phi i32 [ 0, %1 ], [ %13, %4 ], [ %13, %.lr.ph ]
  ret i32 %.06
}